target datalayout = "e-m:e-p270:32:32-p271:32:32-p272:64:64-i64:64-i128:128-f80:128-n8:16:32:64-S128"
target triple = "x86_64-pc-linux-gnu"

%struct._zval_struct = type { %union._zend_value, %union.anon, %union.anon.3 }
%union._zend_value = type { i64 }
%union.anon = type { i32 }
%union.anon.3 = type { i32 }
%struct._zend_op_array = type { i8, [3 x i8], i32, ptr, ptr, ptr, i32, i32, ptr, ptr, ptr, ptr, i32, i32, i32, i32, ptr, ptr, ptr, ptr, ptr, i32, i32, ptr, ptr, ptr, i32, i32, i32, i32, ptr, ptr, [6 x ptr] }
%struct._zend_op = type { ptr, %union._znode_op, %union._znode_op, %union._znode_op, i32, i32, i8, i8, i8, i8 }
%union._znode_op = type { i32 }
%struct._sccp_ctx = type { %struct._scdf_ctx, ptr, ptr, %struct._zval_struct, %struct._zval_struct }
%struct._scdf_ctx = type { ptr, ptr, ptr, ptr, ptr, ptr, ptr, i32, i32, i32, %struct.anon }
%struct.anon = type { ptr, ptr, ptr }
%struct._zend_ssa = type { %struct._zend_cfg, i32, i32, ptr, ptr, ptr, ptr }
%struct._zend_cfg = type { i32, i32, ptr, ptr, ptr, i32 }
%struct._zend_ssa_var = type { i32, i32, i32, i32, ptr, ptr, ptr, i8 }
%struct._zend_ssa_var_info = type { i32, i8, %struct._zend_ssa_range, ptr }
%struct._zend_ssa_range = type { i64, i64, i8, i8 }

; Function Attrs: nounwind uwtable
define internal ptr @value_from_type_and_range(ptr noundef %0, i32 noundef %1, ptr noundef %2) #0 {
  %4 = alloca ptr, align 8
  %5 = alloca ptr, align 8
  %6 = alloca i32, align 4
  %7 = alloca ptr, align 8
  %8 = alloca ptr, align 8
  %9 = alloca ptr, align 8
  %10 = alloca ptr, align 8
  store ptr %0, ptr %5, align 8
  store i32 %1, ptr %6, align 4
  store ptr %2, ptr %7, align 8
  %11 = load ptr, ptr %5, align 8
  %12 = getelementptr inbounds %struct._sccp_ctx, ptr %11, i32 0, i32 0
  %13 = getelementptr inbounds %struct._scdf_ctx, ptr %12, i32 0, i32 1
  %14 = load ptr, ptr %13, align 8
  store ptr %14, ptr %8, align 8
  %15 = load ptr, ptr %8, align 8
  %16 = getelementptr inbounds %struct._zend_ssa, ptr %15, i32 0, i32 6
  %17 = load ptr, ptr %16, align 8
  %18 = load i32, ptr %6, align 4
  %19 = sext i32 %18 to i64
  %20 = getelementptr inbounds %struct._zend_ssa_var_info, ptr %17, i64 %19
  store ptr %20, ptr %9, align 8
  %21 = load ptr, ptr %9, align 8
  %22 = getelementptr inbounds %struct._zend_ssa_var_info, ptr %21, i32 0, i32 0
  %23 = load i32, ptr %22, align 8
  %24 = and i32 %23, 1
  %25 = icmp ne i32 %24, 0
  br i1 %25, label %26, label %27

26:                                               ; preds = %3
  store ptr null, ptr %4, align 8
  br label %214

27:                                               ; preds = %3
  %28 = load ptr, ptr %9, align 8
  %29 = getelementptr inbounds %struct._zend_ssa_var_info, ptr %28, i32 0, i32 0
  %30 = load i32, ptr %29, align 8
  %31 = and i32 %30, 1022
  %32 = icmp ne i32 %31, 0
  br i1 %32, label %34, label %33

33:                                               ; preds = %27
  store ptr null, ptr %4, align 8
  br label %214

34:                                               ; preds = %27
  %35 = load ptr, ptr %9, align 8
  %36 = getelementptr inbounds %struct._zend_ssa_var_info, ptr %35, i32 0, i32 0
  %37 = load i32, ptr %36, align 8
  %38 = and i32 %37, 1021
  %39 = icmp ne i32 %38, 0
  br i1 %39, label %78, label %40

40:                                               ; preds = %34
  %41 = load ptr, ptr %8, align 8
  %42 = getelementptr inbounds %struct._zend_ssa, ptr %41, i32 0, i32 5
  %43 = load ptr, ptr %42, align 8
  %44 = load i32, ptr %6, align 4
  %45 = sext i32 %44 to i64
  %46 = getelementptr inbounds %struct._zend_ssa_var, ptr %43, i64 %45
  %47 = getelementptr inbounds %struct._zend_ssa_var, ptr %46, i32 0, i32 2
  %48 = load i32, ptr %47, align 8
  %49 = icmp sge i32 %48, 0
  br i1 %49, label %50, label %72

50:                                               ; preds = %40
  %51 = load ptr, ptr %5, align 8
  %52 = getelementptr inbounds %struct._sccp_ctx, ptr %51, i32 0, i32 0
  %53 = getelementptr inbounds %struct._scdf_ctx, ptr %52, i32 0, i32 0
  %54 = load ptr, ptr %53, align 8
  %55 = getelementptr inbounds %struct._zend_op_array, ptr %54, i32 0, i32 16
  %56 = load ptr, ptr %55, align 8
  %57 = load ptr, ptr %8, align 8
  %58 = getelementptr inbounds %struct._zend_ssa, ptr %57, i32 0, i32 5
  %59 = load ptr, ptr %58, align 8
  %60 = load i32, ptr %6, align 4
  %61 = sext i32 %60 to i64
  %62 = getelementptr inbounds %struct._zend_ssa_var, ptr %59, i64 %61
  %63 = getelementptr inbounds %struct._zend_ssa_var, ptr %62, i32 0, i32 2
  %64 = load i32, ptr %63, align 8
  %65 = sext i32 %64 to i64
  %66 = getelementptr inbounds %struct._zend_op, ptr %56, i64 %65
  %67 = getelementptr inbounds %struct._zend_op, ptr %66, i32 0, i32 6
  %68 = load i8, ptr %67, align 4
  %69 = zext i8 %68 to i32
  %70 = icmp eq i32 %69, 124
  br i1 %70, label %71, label %72

71:                                               ; preds = %50
  store ptr null, ptr %4, align 8
  br label %214

72:                                               ; preds = %50, %40
  br label %73

73:                                               ; preds = %72
  %74 = load ptr, ptr %7, align 8
  %75 = getelementptr inbounds %struct._zval_struct, ptr %74, i32 0, i32 1
  store i32 1, ptr %75, align 8
  br label %76

76:                                               ; preds = %73
  %77 = load ptr, ptr %7, align 8
  store ptr %77, ptr %4, align 8
  br label %214

78:                                               ; preds = %34
  %79 = load ptr, ptr %9, align 8
  %80 = getelementptr inbounds %struct._zend_ssa_var_info, ptr %79, i32 0, i32 0
  %81 = load i32, ptr %80, align 8
  %82 = and i32 %81, 1019
  %83 = icmp ne i32 %82, 0
  br i1 %83, label %122, label %84

84:                                               ; preds = %78
  %85 = load ptr, ptr %8, align 8
  %86 = getelementptr inbounds %struct._zend_ssa, ptr %85, i32 0, i32 5
  %87 = load ptr, ptr %86, align 8
  %88 = load i32, ptr %6, align 4
  %89 = sext i32 %88 to i64
  %90 = getelementptr inbounds %struct._zend_ssa_var, ptr %87, i64 %89
  %91 = getelementptr inbounds %struct._zend_ssa_var, ptr %90, i32 0, i32 2
  %92 = load i32, ptr %91, align 8
  %93 = icmp sge i32 %92, 0
  br i1 %93, label %94, label %116

94:                                               ; preds = %84
  %95 = load ptr, ptr %5, align 8
  %96 = getelementptr inbounds %struct._sccp_ctx, ptr %95, i32 0, i32 0
  %97 = getelementptr inbounds %struct._scdf_ctx, ptr %96, i32 0, i32 0
  %98 = load ptr, ptr %97, align 8
  %99 = getelementptr inbounds %struct._zend_op_array, ptr %98, i32 0, i32 16
  %100 = load ptr, ptr %99, align 8
  %101 = load ptr, ptr %8, align 8
  %102 = getelementptr inbounds %struct._zend_ssa, ptr %101, i32 0, i32 5
  %103 = load ptr, ptr %102, align 8
  %104 = load i32, ptr %6, align 4
  %105 = sext i32 %104 to i64
  %106 = getelementptr inbounds %struct._zend_ssa_var, ptr %103, i64 %105
  %107 = getelementptr inbounds %struct._zend_ssa_var, ptr %106, i32 0, i32 2
  %108 = load i32, ptr %107, align 8
  %109 = sext i32 %108 to i64
  %110 = getelementptr inbounds %struct._zend_op, ptr %100, i64 %109
  %111 = getelementptr inbounds %struct._zend_op, ptr %110, i32 0, i32 6
  %112 = load i8, ptr %111, align 4
  %113 = zext i8 %112 to i32
  %114 = icmp eq i32 %113, 124
  br i1 %114, label %115, label %116

115:                                              ; preds = %94
  store ptr null, ptr %4, align 8
  br label %214

116:                                              ; preds = %94, %84
  br label %117

117:                                              ; preds = %116
  %118 = load ptr, ptr %7, align 8
  %119 = getelementptr inbounds %struct._zval_struct, ptr %118, i32 0, i32 1
  store i32 2, ptr %119, align 8
  br label %120

120:                                              ; preds = %117
  %121 = load ptr, ptr %7, align 8
  store ptr %121, ptr %4, align 8
  br label %214

122:                                              ; preds = %78
  %123 = load ptr, ptr %9, align 8
  %124 = getelementptr inbounds %struct._zend_ssa_var_info, ptr %123, i32 0, i32 0
  %125 = load i32, ptr %124, align 8
  %126 = and i32 %125, 1015
  %127 = icmp ne i32 %126, 0
  br i1 %127, label %166, label %128

128:                                              ; preds = %122
  %129 = load ptr, ptr %8, align 8
  %130 = getelementptr inbounds %struct._zend_ssa, ptr %129, i32 0, i32 5
  %131 = load ptr, ptr %130, align 8
  %132 = load i32, ptr %6, align 4
  %133 = sext i32 %132 to i64
  %134 = getelementptr inbounds %struct._zend_ssa_var, ptr %131, i64 %133
  %135 = getelementptr inbounds %struct._zend_ssa_var, ptr %134, i32 0, i32 2
  %136 = load i32, ptr %135, align 8
  %137 = icmp sge i32 %136, 0
  br i1 %137, label %138, label %160

138:                                              ; preds = %128
  %139 = load ptr, ptr %5, align 8
  %140 = getelementptr inbounds %struct._sccp_ctx, ptr %139, i32 0, i32 0
  %141 = getelementptr inbounds %struct._scdf_ctx, ptr %140, i32 0, i32 0
  %142 = load ptr, ptr %141, align 8
  %143 = getelementptr inbounds %struct._zend_op_array, ptr %142, i32 0, i32 16
  %144 = load ptr, ptr %143, align 8
  %145 = load ptr, ptr %8, align 8
  %146 = getelementptr inbounds %struct._zend_ssa, ptr %145, i32 0, i32 5
  %147 = load ptr, ptr %146, align 8
  %148 = load i32, ptr %6, align 4
  %149 = sext i32 %148 to i64
  %150 = getelementptr inbounds %struct._zend_ssa_var, ptr %147, i64 %149
  %151 = getelementptr inbounds %struct._zend_ssa_var, ptr %150, i32 0, i32 2
  %152 = load i32, ptr %151, align 8
  %153 = sext i32 %152 to i64
  %154 = getelementptr inbounds %struct._zend_op, ptr %144, i64 %153
  %155 = getelementptr inbounds %struct._zend_op, ptr %154, i32 0, i32 6
  %156 = load i8, ptr %155, align 4
  %157 = zext i8 %156 to i32
  %158 = icmp eq i32 %157, 124
  br i1 %158, label %159, label %160

159:                                              ; preds = %138
  store ptr null, ptr %4, align 8
  br label %214

160:                                              ; preds = %138, %128
  br label %161

161:                                              ; preds = %160
  %162 = load ptr, ptr %7, align 8
  %163 = getelementptr inbounds %struct._zval_struct, ptr %162, i32 0, i32 1
  store i32 3, ptr %163, align 8
  br label %164

164:                                              ; preds = %161
  %165 = load ptr, ptr %7, align 8
  store ptr %165, ptr %4, align 8
  br label %214

166:                                              ; preds = %122
  %167 = load ptr, ptr %9, align 8
  %168 = getelementptr inbounds %struct._zend_ssa_var_info, ptr %167, i32 0, i32 0
  %169 = load i32, ptr %168, align 8
  %170 = and i32 %169, 1007
  %171 = icmp ne i32 %170, 0
  br i1 %171, label %213, label %172

172:                                              ; preds = %166
  %173 = load ptr, ptr %9, align 8
  %174 = getelementptr inbounds %struct._zend_ssa_var_info, ptr %173, i32 0, i32 1
  %175 = load i8, ptr %174, align 4
  %176 = and i8 %175, 1
  %177 = trunc i8 %176 to i1
  br i1 %177, label %178, label %213

178:                                              ; preds = %172
  %179 = load ptr, ptr %9, align 8
  %180 = getelementptr inbounds %struct._zend_ssa_var_info, ptr %179, i32 0, i32 2
  %181 = getelementptr inbounds %struct._zend_ssa_range, ptr %180, i32 0, i32 3
  %182 = load i8, ptr %181, align 1
  %183 = trunc i8 %182 to i1
  br i1 %183, label %213, label %184

184:                                              ; preds = %178
  %185 = load ptr, ptr %9, align 8
  %186 = getelementptr inbounds %struct._zend_ssa_var_info, ptr %185, i32 0, i32 2
  %187 = getelementptr inbounds %struct._zend_ssa_range, ptr %186, i32 0, i32 2
  %188 = load i8, ptr %187, align 8
  %189 = trunc i8 %188 to i1
  br i1 %189, label %213, label %190

190:                                              ; preds = %184
  %191 = load ptr, ptr %9, align 8
  %192 = getelementptr inbounds %struct._zend_ssa_var_info, ptr %191, i32 0, i32 2
  %193 = getelementptr inbounds %struct._zend_ssa_range, ptr %192, i32 0, i32 0
  %194 = load i64, ptr %193, align 8
  %195 = load ptr, ptr %9, align 8
  %196 = getelementptr inbounds %struct._zend_ssa_var_info, ptr %195, i32 0, i32 2
  %197 = getelementptr inbounds %struct._zend_ssa_range, ptr %196, i32 0, i32 1
  %198 = load i64, ptr %197, align 8
  %199 = icmp eq i64 %194, %198
  br i1 %199, label %200, label %213

200:                                              ; preds = %190
  br label %201

201:                                              ; preds = %200
  %202 = load ptr, ptr %7, align 8
  store ptr %202, ptr %10, align 8
  %203 = load ptr, ptr %9, align 8
  %204 = getelementptr inbounds %struct._zend_ssa_var_info, ptr %203, i32 0, i32 2
  %205 = getelementptr inbounds %struct._zend_ssa_range, ptr %204, i32 0, i32 0
  %206 = load i64, ptr %205, align 8
  %207 = load ptr, ptr %10, align 8
  %208 = getelementptr inbounds %struct._zval_struct, ptr %207, i32 0, i32 0
  store i64 %206, ptr %208, align 8
  %209 = load ptr, ptr %10, align 8
  %210 = getelementptr inbounds %struct._zval_struct, ptr %209, i32 0, i32 1
  store i32 4, ptr %210, align 8
  br label %211

211:                                              ; preds = %201
  %212 = load ptr, ptr %7, align 8
  store ptr %212, ptr %4, align 8
  br label %214

213:                                              ; preds = %190, %184, %178, %172, %166
  store ptr null, ptr %4, align 8
  br label %214

214:                                              ; preds = %213, %211, %164, %159, %120, %115, %76, %71, %33, %26
  %215 = load ptr, ptr %4, align 8
  ret ptr %215
}