; Function Attrs: mustprogress nofree norecurse nosync nounwind willreturn memory(read, argmem: readwrite, inaccessiblemem: none) uwtable
define internal fastcc noundef ptr @value_from_type_and_range(ptr nocapture noundef readonly %0, i32 noundef %1, ptr noundef writeonly %2) unnamed_addr #7 {
  %4 = getelementptr inbounds i8, ptr %0, i64 8
  %5 = load ptr, ptr %4, align 8
  %6 = getelementptr inbounds i8, ptr %5, i64 72
  %7 = load ptr, ptr %6, align 8
  %8 = sext i32 %1 to i64
  %9 = getelementptr inbounds %struct._zend_ssa_var_info, ptr %7, i64 %8
  %10 = load i32, ptr %9, align 8
  %11 = and i32 %10, 1
  %.not = icmp ne i32 %11, 0
  %12 = and i32 %10, 1022
  %.not44 = icmp eq i32 %12, 0
  %or.cond = or i1 %.not, %.not44
  br i1 %or.cond, label %83, label %13

13:                                               ; preds = %3
  %14 = and i32 %10, 1020
  %.not45 = icmp eq i32 %14, 0
  br i1 %.not45, label %15, label %29

15:                                               ; preds = %13
  %16 = getelementptr inbounds i8, ptr %5, i64 64
  %17 = load ptr, ptr %16, align 8
  %18 = getelementptr inbounds %struct._zend_ssa_var, ptr %17, i64 %8, i32 2
  %19 = load i32, ptr %18, align 8
  %20 = icmp sgt i32 %19, -1
  br i1 %20, label %21, label %.sink.split

21:                                               ; preds = %15
  %22 = load ptr, ptr %0, align 8
  %23 = getelementptr inbounds i8, ptr %22, i64 88
  %24 = load ptr, ptr %23, align 8
  %25 = zext nneg i32 %19 to i64
  %26 = getelementptr inbounds %struct._zend_op, ptr %24, i64 %25, i32 6
  %27 = load i8, ptr %26, align 4
  %28 = icmp eq i8 %27, 124
  br i1 %28, label %83, label %.sink.split

29:                                               ; preds = %13
  %30 = and i32 %10, 1018
  %.not46 = icmp eq i32 %30, 0
  br i1 %.not46, label %31, label %45

31:                                               ; preds = %29
  %32 = getelementptr inbounds i8, ptr %5, i64 64
  %33 = load ptr, ptr %32, align 8
  %34 = getelementptr inbounds %struct._zend_ssa_var, ptr %33, i64 %8, i32 2
  %35 = load i32, ptr %34, align 8
  %36 = icmp sgt i32 %35, -1
  br i1 %36, label %37, label %.sink.split

37:                                               ; preds = %31
  %38 = load ptr, ptr %0, align 8
  %39 = getelementptr inbounds i8, ptr %38, i64 88
  %40 = load ptr, ptr %39, align 8
  %41 = zext nneg i32 %35 to i64
  %42 = getelementptr inbounds %struct._zend_op, ptr %40, i64 %41, i32 6
  %43 = load i8, ptr %42, align 4
  %44 = icmp eq i8 %43, 124
  br i1 %44, label %83, label %.sink.split

45:                                               ; preds = %29
  %46 = and i32 %10, 1014
  %.not47 = icmp eq i32 %46, 0
  br i1 %.not47, label %47, label %61

47:                                               ; preds = %45
  %48 = getelementptr inbounds i8, ptr %5, i64 64
  %49 = load ptr, ptr %48, align 8
  %50 = getelementptr inbounds %struct._zend_ssa_var, ptr %49, i64 %8, i32 2
  %51 = load i32, ptr %50, align 8
  %52 = icmp sgt i32 %51, -1
  br i1 %52, label %53, label %.sink.split

53:                                               ; preds = %47
  %54 = load ptr, ptr %0, align 8
  %55 = getelementptr inbounds i8, ptr %54, i64 88
  %56 = load ptr, ptr %55, align 8
  %57 = zext nneg i32 %51 to i64
  %58 = getelementptr inbounds %struct._zend_op, ptr %56, i64 %57, i32 6
  %59 = load i8, ptr %58, align 4
  %60 = icmp eq i8 %59, 124
  br i1 %60, label %83, label %.sink.split

61:                                               ; preds = %45
  %62 = and i32 %10, 1006
  %.not48 = icmp eq i32 %62, 0
  br i1 %.not48, label %63, label %83

63:                                               ; preds = %61
  %64 = getelementptr inbounds i8, ptr %9, i64 4
  %65 = load i8, ptr %64, align 4
  %66 = and i8 %65, 1
  %.not49 = icmp eq i8 %66, 0
  br i1 %.not49, label %83, label %67

67:                                               ; preds = %63
  %68 = getelementptr inbounds i8, ptr %9, i64 8
  %69 = getelementptr inbounds i8, ptr %9, i64 25
  %70 = load i8, ptr %69, align 1
  %71 = and i8 %70, 1
  %.not50 = icmp eq i8 %71, 0
  br i1 %.not50, label %72, label %83

72:                                               ; preds = %67
  %73 = getelementptr inbounds i8, ptr %9, i64 24
  %74 = load i8, ptr %73, align 8
  %75 = and i8 %74, 1
  %.not51 = icmp eq i8 %75, 0
  br i1 %.not51, label %76, label %83

76:                                               ; preds = %72
  %77 = load i64, ptr %68, align 8
  %78 = getelementptr inbounds i8, ptr %9, i64 16
  %79 = load i64, ptr %78, align 8
  %80 = icmp eq i64 %77, %79
  br i1 %80, label %81, label %83

81:                                               ; preds = %76
  store i64 %77, ptr %2, align 8
  br label %.sink.split

.sink.split:                                      ; preds = %53, %47, %37, %31, %21, %15, %81
  %.sink = phi i32 [ 4, %81 ], [ 1, %15 ], [ 1, %21 ], [ 2, %31 ], [ 2, %37 ], [ 3, %47 ], [ 3, %53 ]
  %82 = getelementptr inbounds i8, ptr %2, i64 8
  store i32 %.sink, ptr %82, align 8
  br label %83

83:                                               ; preds = %.sink.split, %61, %63, %67, %72, %76, %53, %37, %21, %3
  %.0 = phi ptr [ null, %3 ], [ null, %21 ], [ null, %37 ], [ null, %53 ], [ null, %76 ], [ null, %72 ], [ null, %67 ], [ null, %63 ], [ null, %61 ], [ %2, %.sink.split ]
  ret ptr %.0
}